target datalayout = "e-m:e-p270:32:32-p271:32:32-p272:64:64-i64:64-i128:128-f80:128-n8:16:32:64-S128"
target triple = "x86_64-pc-linux-gnu"

%struct.rb_code_location_struct = type { %struct.rb_code_position_struct, %struct.rb_code_position_struct }
%struct.rb_code_position_struct = type { i32, i32 }
%struct.rb_iseq_struct = type { i64, i64, ptr, %union.anon.13 }
%union.anon.13 = type { %struct.anon.14 }
%struct.anon.14 = type { i64, i32 }
%struct.rb_iseq_constant_body = type { i32, i32, ptr, %struct.anon.16, %struct.rb_iseq_location_struct, %struct.iseq_insn_info, ptr, ptr, ptr, ptr, ptr, ptr, %struct.anon.17, i32, i32, i32, i32, i32, i32, i32, i32, i8, %union.anon.18, ptr, ptr, ptr, i64, ptr, i64, ptr, i64 }
%struct.anon.16 = type { %struct.anon, i32, i32, i32, i32, i32, i32, i32, ptr, ptr }
%struct.anon = type { i16, [2 x i8] }
%struct.rb_iseq_location_struct = type { i64, i64, i64, i32, i32, %struct.rb_code_location_struct }
%struct.iseq_insn_info = type { ptr, ptr, i32, ptr }
%struct.anon.17 = type { i64, i64, i64, i64, ptr }
%union.anon.18 = type { ptr }

@.str = private unnamed_addr constant [10 x i8] c"../iseq.c\00", align 1

; Function Attrs: inlinehint nounwind sspstrong willreturn memory(none) uwtable
define internal zeroext i1 @RB_IMMEDIATE_P(i64 noundef %0) #7 {
  %2 = alloca i64, align 8
  store i64 %0, ptr %2, align 8, !tbaa !17
  %3 = load i64, ptr %2, align 8, !tbaa !17
  %4 = and i64 %3, 7
  %5 = icmp ne i64 %4, 0
  ret i1 %5
}

; Function Attrs: inlinehint nounwind sspstrong willreturn memory(none) uwtable
define internal zeroext i1 @RB_SPECIAL_CONST_P(i64 noundef %0) #7 {
  %2 = alloca i64, align 8
  store i64 %0, ptr %2, align 8, !tbaa !17
  %3 = load i64, ptr %2, align 8, !tbaa !17
  %4 = icmp eq i64 %3, 0
  br i1 %4, label %8, label %5

5:                                                ; preds = %1
  %6 = load i64, ptr %2, align 8, !tbaa !17
  %7 = call zeroext i1 @RB_IMMEDIATE_P(i64 noundef %6) #28
  br label %8

8:                                                ; preds = %5, %1
  %9 = phi i1 [ true, %1 ], [ %7, %5 ]
  ret i1 %9
}

; Function Attrs: inlinehint nounwind sspstrong uwtable
define internal i64 @rb_obj_written(i64 noundef %0, i64 noundef %1, i64 noundef %2, ptr noundef %3, i32 noundef %4) #5 {
  %6 = alloca i64, align 8
  %7 = alloca i64, align 8
  %8 = alloca i64, align 8
  %9 = alloca ptr, align 8
  %10 = alloca i32, align 4
  store i64 %0, ptr %6, align 8, !tbaa !17
  store i64 %1, ptr %7, align 8, !tbaa !17
  store i64 %2, ptr %8, align 8, !tbaa !17
  store ptr %3, ptr %9, align 8, !tbaa !137
  store i32 %4, ptr %10, align 4, !tbaa !56
  %11 = load i64, ptr %8, align 8, !tbaa !17
  %12 = call zeroext i1 @RB_SPECIAL_CONST_P(i64 noundef %11) #28
  br i1 %12, label %16, label %13

13:                                               ; preds = %5
  %14 = load i64, ptr %6, align 8, !tbaa !17
  %15 = load i64, ptr %8, align 8, !tbaa !17
  call void @rb_gc_writebarrier(i64 noundef %14, i64 noundef %15)
  br label %16

16:                                               ; preds = %13, %5
  %17 = load i64, ptr %6, align 8, !tbaa !17
  ret i64 %17
}

; Function Attrs: inlinehint nounwind sspstrong willreturn memory(none) uwtable
define internal zeroext i1 @RB_NIL_P(i64 noundef %0) #7 {
  %2 = alloca i64, align 8
  store i64 %0, ptr %2, align 8, !tbaa !17
  %3 = load i64, ptr %2, align 8, !tbaa !17
  %4 = icmp eq i64 %3, 4
  ret i1 %4
}

; Function Attrs: inlinehint nounwind sspstrong uwtable
define internal i64 @rb_obj_write(i64 noundef %0, ptr noundef %1, i64 noundef %2, ptr noundef %3, i32 noundef %4) #5 {
  %6 = alloca i64, align 8
  %7 = alloca ptr, align 8
  %8 = alloca i64, align 8
  %9 = alloca ptr, align 8
  %10 = alloca i32, align 4
  store i64 %0, ptr %6, align 8, !tbaa !17
  store ptr %1, ptr %7, align 8, !tbaa !66
  store i64 %2, ptr %8, align 8, !tbaa !17
  store ptr %3, ptr %9, align 8, !tbaa !137
  store i32 %4, ptr %10, align 4, !tbaa !56
  %11 = load i64, ptr %8, align 8, !tbaa !17
  %12 = load ptr, ptr %7, align 8, !tbaa !66
  store i64 %11, ptr %12, align 8, !tbaa !17
  %13 = load i64, ptr %6, align 8, !tbaa !17
  %14 = load i64, ptr %8, align 8, !tbaa !17
  %15 = load ptr, ptr %9, align 8, !tbaa !137
  %16 = load i32, ptr %10, align 4, !tbaa !56
  %17 = call i64 @rb_obj_written(i64 noundef %13, i64 noundef 36, i64 noundef %14, ptr noundef %15, i32 noundef %16)
  %18 = load i64, ptr %6, align 8, !tbaa !17
  ret i64 %18
}

; Function Attrs: nounwind sspstrong uwtable
define hidden i64 @rb_iseq_pathobj_new(i64 noundef %0, i64 noundef %1) #0 {
  %3 = alloca i64, align 8
  %4 = alloca i64, align 8
  %5 = alloca i64, align 8
  store i64 %0, ptr %3, align 8, !tbaa !17
  store i64 %1, ptr %4, align 8, !tbaa !17
  call void @llvm.lifetime.start.p0(i64 8, ptr %5) #24
  %6 = load i64, ptr %3, align 8, !tbaa !17
  %7 = load i64, ptr %4, align 8, !tbaa !17
  %8 = icmp eq i64 %6, %7
  br i1 %8, label %17, label %9

9:                                                ; preds = %2
  %10 = load i64, ptr %4, align 8, !tbaa !17
  %11 = call zeroext i1 @RB_NIL_P(i64 noundef %10) #28
  br i1 %11, label %20, label %12

12:                                               ; preds = %9
  %13 = load i64, ptr %3, align 8, !tbaa !17
  %14 = load i64, ptr %4, align 8, !tbaa !17
  %15 = call i32 @rb_str_cmp(i64 noundef %13, i64 noundef %14)
  %16 = icmp eq i32 %15, 0
  br i1 %16, label %17, label %20

17:                                               ; preds = %12, %2
  %18 = load i64, ptr %3, align 8, !tbaa !17
  %19 = call i64 @rb_fstring(i64 noundef %18)
  store i64 %19, ptr %5, align 8, !tbaa !17
  br label %33

20:                                               ; preds = %12, %9
  %21 = load i64, ptr %4, align 8, !tbaa !17
  %22 = call zeroext i1 @RB_NIL_P(i64 noundef %21) #28
  br i1 %22, label %26, label %23

23:                                               ; preds = %20
  %24 = load i64, ptr %4, align 8, !tbaa !17
  %25 = call i64 @rb_fstring(i64 noundef %24)
  store i64 %25, ptr %4, align 8, !tbaa !17
  br label %26

26:                                               ; preds = %23, %20
  %27 = load i64, ptr %3, align 8, !tbaa !17
  %28 = call i64 @rb_fstring(i64 noundef %27)
  %29 = load i64, ptr %4, align 8, !tbaa !17
  %30 = call i64 (i64, ...) @rb_ary_new_from_args(i64 noundef 2, i64 noundef %28, i64 noundef %29)
  store i64 %30, ptr %5, align 8, !tbaa !17
  %31 = load i64, ptr %5, align 8, !tbaa !17
  %32 = call i64 @rb_ary_freeze(i64 noundef %31)
  br label %33

33:                                               ; preds = %26, %17
  %34 = load i64, ptr %5, align 8, !tbaa !17
  call void @llvm.lifetime.end.p0(i64 8, ptr %5) #24
  ret i64 %34
}

; Function Attrs: nounwind sspstrong uwtable
define hidden void @rb_iseq_pathobj_set(ptr noundef %0, i64 noundef %1, i64 noundef %2) #0 {
  %4 = alloca ptr, align 8
  %5 = alloca i64, align 8
  %6 = alloca i64, align 8
  store ptr %0, ptr %4, align 8, !tbaa !7
  store i64 %1, ptr %5, align 8, !tbaa !17
  store i64 %2, ptr %6, align 8, !tbaa !17
  %7 = load ptr, ptr %4, align 8, !tbaa !7
  %8 = ptrtoint ptr %7 to i64
  %9 = load ptr, ptr %4, align 8, !tbaa !7
  %10 = getelementptr inbounds nuw %struct.rb_iseq_struct, ptr %9, i32 0, i32 2
  %11 = load ptr, ptr %10, align 8, !tbaa !12
  %12 = getelementptr inbounds nuw %struct.rb_iseq_constant_body, ptr %11, i32 0, i32 4
  %13 = getelementptr inbounds nuw %struct.rb_iseq_location_struct, ptr %12, i32 0, i32 0
  %14 = load i64, ptr %5, align 8, !tbaa !17
  %15 = load i64, ptr %6, align 8, !tbaa !17
  %16 = call i64 @rb_iseq_pathobj_new(i64 noundef %14, i64 noundef %15)
  %17 = call i64 @rb_obj_write(i64 noundef %8, ptr noundef %13, i64 noundef %16, ptr noundef @.str, i32 noundef 531)
  ret void
}