; Function Attrs: nounwind sspstrong uwtable
define hidden void @rb_iseq_pathobj_set(ptr noundef %0, i64 noundef %1, i64 noundef %2) local_unnamed_addr #0 {
  %4 = ptrtoint ptr %0 to i64
  %5 = getelementptr inbounds nuw i8, ptr %0, i64 16
  %6 = load ptr, ptr %5, align 8, !tbaa !7
  %7 = getelementptr inbounds nuw i8, ptr %6, i64 64
  %8 = icmp eq i64 %1, %2
  br i1 %8, label %14, label %9

9:                                                ; preds = %3
  %10 = icmp eq i64 %2, 4
  br i1 %10, label %.critedge.i, label %11

11:                                               ; preds = %9
  %12 = tail call i32 @rb_str_cmp(i64 noundef %1, i64 noundef %2) #20
  %13 = icmp eq i32 %12, 0
  br i1 %13, label %14, label %16

14:                                               ; preds = %11, %3
  %15 = tail call i64 @rb_fstring(i64 noundef %1) #20
  br label %rb_iseq_pathobj_new.exit

16:                                               ; preds = %11
  %17 = tail call i64 @rb_fstring(i64 noundef %2) #20
  br label %.critedge.i

.critedge.i:                                      ; preds = %16, %9
  %.012.i = phi i64 [ %17, %16 ], [ 4, %9 ]
  %18 = tail call i64 @rb_fstring(i64 noundef %1) #20
  %19 = tail call i64 (i64, ...) @rb_ary_new_from_args(i64 noundef 2, i64 noundef %18, i64 noundef %.012.i) #20
  %20 = tail call i64 @rb_ary_freeze(i64 noundef %19) #20
  br label %rb_iseq_pathobj_new.exit

rb_iseq_pathobj_new.exit:                         ; preds = %14, %.critedge.i
  %.0.i = phi i64 [ %15, %14 ], [ %19, %.critedge.i ]
  store i64 %.0.i, ptr %7, align 8, !tbaa !42
  %21 = icmp eq i64 %.0.i, 0
  %22 = and i64 %.0.i, 7
  %23 = icmp ne i64 %22, 0
  %24 = or i1 %21, %23
  br i1 %24, label %rb_obj_write.exit, label %25

25:                                               ; preds = %rb_iseq_pathobj_new.exit
  tail call void @rb_gc_writebarrier(i64 noundef %4, i64 noundef %.0.i) #20
  br label %rb_obj_write.exit

rb_obj_write.exit:                                ; preds = %rb_iseq_pathobj_new.exit, %25
  ret void
}